target datalayout = "e-m:e-p270:32:32-p271:32:32-p272:64:64-i64:64-i128:128-f80:128-n8:16:32:64-S128"
target triple = "x86_64-pc-linux-gnu"

%struct.option = type { i32, i32, ptr, ptr, ptr, ptr, i32, ptr, i64, ptr, i64, ptr }

; Function Attrs: nounwind uwtable
define internal i32 @recurse_submodules_cb(ptr noundef %0, ptr noundef %1, i32 noundef %2) #0 {
  %4 = alloca ptr, align 8
  %5 = alloca ptr, align 8
  %6 = alloca i32, align 4
  store ptr %0, ptr %4, align 8, !tbaa !145
  store ptr %1, ptr %5, align 8, !tbaa !11
  store i32 %2, ptr %6, align 4, !tbaa !4
  %7 = load i32, ptr %6, align 4, !tbaa !4
  %8 = icmp ne i32 %7, 0
  br i1 %8, label %9, label %13

9:                                                ; preds = %3
  %10 = load ptr, ptr %4, align 8, !tbaa !145
  %11 = getelementptr inbounds nuw %struct.option, ptr %10, i32 0, i32 3
  %12 = load ptr, ptr %11, align 8, !tbaa !147
  call void @string_list_clear(ptr noundef %12, i32 noundef 0)
  br label %32

13:                                               ; preds = %3
  %14 = load ptr, ptr %5, align 8, !tbaa !11
  %15 = icmp ne ptr %14, null
  br i1 %15, label %16, label %22

16:                                               ; preds = %13
  %17 = load ptr, ptr %4, align 8, !tbaa !145
  %18 = getelementptr inbounds nuw %struct.option, ptr %17, i32 0, i32 3
  %19 = load ptr, ptr %18, align 8, !tbaa !147
  %20 = load ptr, ptr %5, align 8, !tbaa !11
  %21 = call ptr @string_list_append(ptr noundef %19, ptr noundef %20)
  br label %31

22:                                               ; preds = %13
  %23 = load ptr, ptr %4, align 8, !tbaa !145
  %24 = getelementptr inbounds nuw %struct.option, ptr %23, i32 0, i32 3
  %25 = load ptr, ptr %24, align 8, !tbaa !147
  %26 = load ptr, ptr %4, align 8, !tbaa !145
  %27 = getelementptr inbounds nuw %struct.option, ptr %26, i32 0, i32 8
  %28 = load i64, ptr %27, align 8, !tbaa !149
  %29 = inttoptr i64 %28 to ptr
  %30 = call ptr @string_list_append(ptr noundef %25, ptr noundef %29)
  br label %31

31:                                               ; preds = %22, %16
  br label %32

32:                                               ; preds = %31, %9
  ret i32 0
}