; Function Attrs: nounwind uwtable
define internal noundef i32 @recurse_submodules_cb(ptr noundef readonly captures(none) %0, ptr noundef %1, i32 noundef %2) #0 {
  %.not = icmp eq i32 %2, 0
  br i1 %.not, label %7, label %4

4:                                                ; preds = %3
  %5 = getelementptr inbounds nuw i8, ptr %0, i64 16
  %6 = load ptr, ptr %5, align 8, !tbaa !141
  tail call void @string_list_clear(ptr noundef %6, i32 noundef 0) #20
  br label %17

7:                                                ; preds = %3
  %.not6 = icmp eq ptr %1, null
  %8 = getelementptr inbounds nuw i8, ptr %0, i64 16
  %9 = load ptr, ptr %8, align 8, !tbaa !141
  br i1 %.not6, label %12, label %10

10:                                               ; preds = %7
  %11 = tail call ptr @string_list_append(ptr noundef %9, ptr noundef nonnull %1) #20
  br label %17

12:                                               ; preds = %7
  %13 = getelementptr inbounds nuw i8, ptr %0, i64 56
  %14 = load i64, ptr %13, align 8, !tbaa !143
  %15 = inttoptr i64 %14 to ptr
  %16 = tail call ptr @string_list_append(ptr noundef %9, ptr noundef %15) #20
  br label %17

17:                                               ; preds = %10, %12, %4
  ret i32 0
}